target datalayout = "e-m:e-p270:32:32-p271:32:32-p272:64:64-i64:64-i128:128-f80:128-n8:16:32:64-S128"
target triple = "x86_64-unknown-linux-gnu"

%struct.ConnectionKey = type <{ %struct.in_addr, %struct.in_addr, i16, i16, i8 }>
%struct.in_addr = type { i32 }
%struct.Connection = type { %struct._GQueue, %struct._GQueue, i8, i8, i32, i32, i32, i32, i32, i32 }
%struct._GQueue = type { ptr, ptr, i32 }

; Function Attrs: nounwind sspstrong uwtable
define dso_local ptr @connection_new(ptr noundef %key) #0 {
entry:
  %key.addr = alloca ptr, align 8
  %conn = alloca ptr, align 8
  store ptr %key, ptr %key.addr, align 8
  %call = call noalias ptr @g_slice_alloc0(i64 noundef 80) #13
  store ptr %call, ptr %conn, align 8
  %0 = load ptr, ptr %key.addr, align 8
  %ip_proto = getelementptr inbounds %struct.ConnectionKey, ptr %0, i32 0, i32 4
  %1 = load i8, ptr %ip_proto, align 1
  %2 = load ptr, ptr %conn, align 8
  %ip_proto1 = getelementptr inbounds %struct.Connection, ptr %2, i32 0, i32 3
  store i8 %1, ptr %ip_proto1, align 1
  %3 = load ptr, ptr %conn, align 8
  %processing = getelementptr inbounds %struct.Connection, ptr %3, i32 0, i32 2
  store i8 0, ptr %processing, align 8
  %4 = load ptr, ptr %conn, align 8
  %tcp_state = getelementptr inbounds %struct.Connection, ptr %4, i32 0, i32 8
  store i32 0, ptr %tcp_state, align 4
  %5 = load ptr, ptr %conn, align 8
  %primary_list = getelementptr inbounds %struct.Connection, ptr %5, i32 0, i32 0
  call void @g_queue_init(ptr noundef %primary_list)
  %6 = load ptr, ptr %conn, align 8
  %secondary_list = getelementptr inbounds %struct.Connection, ptr %6, i32 0, i32 1
  call void @g_queue_init(ptr noundef %secondary_list)
  %7 = load ptr, ptr %conn, align 8
  ret ptr %7
}