; Function Attrs: nounwind sspstrong uwtable
define dso_local noundef ptr @connection_new(ptr noundef readonly captures(none) %key) local_unnamed_addr #2 {
entry:
  %call = tail call noalias dereferenceable_or_null(80) ptr @g_slice_alloc0(i64 noundef 80) #17
  %ip_proto = getelementptr inbounds nuw i8, ptr %key, i64 12
  %0 = load i8, ptr %ip_proto, align 1
  %ip_proto1 = getelementptr inbounds nuw i8, ptr %call, i64 49
  store i8 %0, ptr %ip_proto1, align 1
  %processing = getelementptr inbounds nuw i8, ptr %call, i64 48
  store i8 0, ptr %processing, align 8
  %tcp_state = getelementptr inbounds nuw i8, ptr %call, i64 68
  store i32 0, ptr %tcp_state, align 4
  tail call void @g_queue_init(ptr noundef %call) #15
  %secondary_list = getelementptr inbounds nuw i8, ptr %call, i64 24
  tail call void @g_queue_init(ptr noundef nonnull %secondary_list) #15
  ret ptr %call
}